; ModuleID = '60/1589.c'
source_filename = "60/1589.c"
target datalayout = "e-m:e-p270:32:32-p271:32:32-p272:64:64-i64:64-f80:128-n8:16:32:64-S128"
target triple = "x86_64-pc-linux-gnu"

@.str = private unnamed_addr constant [3 x i8] c"%d\00", align 1
@.str.1 = private unnamed_addr constant [7 x i8] c"%d %d\0A\00", align 1
@.str.2 = private unnamed_addr constant [6 x i8] c"empty\00", align 1

; Function Attrs: noinline nounwind uwtable
define dso_local i32 @main() #0 {
  %1 = alloca i32, align 4
  %2 = alloca i32, align 4
  %3 = alloca i32, align 4
  %4 = alloca i32, align 4
  %5 = alloca i32, align 4
  %6 = alloca i32, align 4
  %7 = alloca [10000 x i32], align 16
  store i32 0, i32* %1, align 4
  store i32 0, i32* %6, align 4
  %8 = call i32 (i8*, ...) @__isoc99_scanf(i8* getelementptr inbounds ([3 x i8], [3 x i8]* @.str, i64 0, i64 0), i32* %2)
  store i32 0, i32* %3, align 4
  br label %9

9:                                                ; preds = %19, %0
  %10 = load i32, i32* %3, align 4
  %11 = load i32, i32* %2, align 4
  %12 = icmp slt i32 %10, %11
  br i1 %12, label %13, label %22

13:                                               ; preds = %9
  %14 = load i32, i32* %3, align 4
  %15 = add nsw i32 %14, 1
  %16 = load i32, i32* %3, align 4
  %17 = sext i32 %16 to i64
  %18 = getelementptr inbounds [10000 x i32], [10000 x i32]* %7, i64 0, i64 %17
  store i32 %15, i32* %18, align 4
  br label %19

19:                                               ; preds = %13
  %20 = load i32, i32* %3, align 4
  %21 = add nsw i32 %20, 1
  store i32 %21, i32* %3, align 4
  br label %9

22:                                               ; preds = %9
  store i32 0, i32* %3, align 4
  br label %23

23:                                               ; preds = %58, %22
  %24 = load i32, i32* %3, align 4
  %25 = load i32, i32* %2, align 4
  %26 = icmp slt i32 %24, %25
  br i1 %26, label %27, label %61

27:                                               ; preds = %23
  %28 = load i32, i32* %3, align 4
  %29 = sext i32 %28 to i64
  %30 = getelementptr inbounds [10000 x i32], [10000 x i32]* %7, i64 0, i64 %29
  %31 = load i32, i32* %30, align 4
  %32 = call i32 @issushu(i32 %31)
  store i32 %32, i32* %4, align 4
  %33 = load i32, i32* %3, align 4
  %34 = add nsw i32 %33, 2
  %35 = sext i32 %34 to i64
  %36 = getelementptr inbounds [10000 x i32], [10000 x i32]* %7, i64 0, i64 %35
  %37 = load i32, i32* %36, align 4
  %38 = call i32 @issushu(i32 %37)
  store i32 %38, i32* %5, align 4
  %39 = load i32, i32* %4, align 4
  %40 = icmp ne i32 %39, 0
  br i1 %40, label %41, label %57

41:                                               ; preds = %27
  %42 = load i32, i32* %5, align 4
  %43 = icmp ne i32 %42, 0
  br i1 %43, label %44, label %57

44:                                               ; preds = %41
  %45 = load i32, i32* %3, align 4
  %46 = sext i32 %45 to i64
  %47 = getelementptr inbounds [10000 x i32], [10000 x i32]* %7, i64 0, i64 %46
  %48 = load i32, i32* %47, align 4
  %49 = load i32, i32* %3, align 4
  %50 = add nsw i32 %49, 2
  %51 = sext i32 %50 to i64
  %52 = getelementptr inbounds [10000 x i32], [10000 x i32]* %7, i64 0, i64 %51
  %53 = load i32, i32* %52, align 4
  %54 = call i32 (i8*, ...) @printf(i8* getelementptr inbounds ([7 x i8], [7 x i8]* @.str.1, i64 0, i64 0), i32 %48, i32 %53)
  %55 = load i32, i32* %6, align 4
  %56 = add nsw i32 %55, 1
  store i32 %56, i32* %6, align 4
  br label %57

57:                                               ; preds = %44, %41, %27
  br label %58

58:                                               ; preds = %57
  %59 = load i32, i32* %3, align 4
  %60 = add nsw i32 %59, 1
  store i32 %60, i32* %3, align 4
  br label %23

61:                                               ; preds = %23
  %62 = load i32, i32* %6, align 4
  %63 = icmp eq i32 %62, 0
  br i1 %63, label %64, label %66

64:                                               ; preds = %61
  %65 = call i32 (i8*, ...) @printf(i8* getelementptr inbounds ([6 x i8], [6 x i8]* @.str.2, i64 0, i64 0))
  br label %66

66:                                               ; preds = %64, %61
  ret i32 0
}

declare dso_local i32 @__isoc99_scanf(i8*, ...) #1

; Function Attrs: noinline nounwind uwtable
define dso_local i32 @issushu(i32 %0) #0 {
  %2 = alloca i32, align 4
  %3 = alloca i32, align 4
  %4 = alloca i32, align 4
  %5 = alloca i32, align 4
  %6 = alloca i32, align 4
  store i32 %0, i32* %3, align 4
  store i32 1, i32* %6, align 4
  %7 = load i32, i32* %3, align 4
  %8 = icmp eq i32 %7, 1
  br i1 %8, label %9, label %11

9:                                                ; preds = %1
  store i32 0, i32* %6, align 4
  %10 = load i32, i32* %6, align 4
  store i32 %10, i32* %2, align 4
  br label %42

11:                                               ; preds = %1
  %12 = load i32, i32* %3, align 4
  %13 = srem i32 %12, 2
  %14 = icmp eq i32 %13, 0
  br i1 %14, label %15, label %22

15:                                               ; preds = %11
  %16 = load i32, i32* %3, align 4
  %17 = icmp eq i32 %16, 2
  br i1 %17, label %18, label %20

18:                                               ; preds = %15
  %19 = load i32, i32* %6, align 4
  store i32 %19, i32* %2, align 4
  br label %42

20:                                               ; preds = %15
  store i32 0, i32* %6, align 4
  %21 = load i32, i32* %6, align 4
  store i32 %21, i32* %2, align 4
  br label %42

22:                                               ; preds = %11
  br label %23

23:                                               ; preds = %22
  %24 = load i32, i32* %3, align 4
  %25 = sdiv i32 %24, 2
  store i32 %25, i32* %5, align 4
  store i32 3, i32* %4, align 4
  br label %26

26:                                               ; preds = %37, %23
  %27 = load i32, i32* %4, align 4
  %28 = load i32, i32* %5, align 4
  %29 = icmp sle i32 %27, %28
  br i1 %29, label %30, label %40

30:                                               ; preds = %26
  %31 = load i32, i32* %3, align 4
  %32 = load i32, i32* %4, align 4
  %33 = srem i32 %31, %32
  %34 = icmp eq i32 %33, 0
  br i1 %34, label %35, label %36

35:                                               ; preds = %30
  store i32 0, i32* %6, align 4
  br label %40

36:                                               ; preds = %30
  br label %37

37:                                               ; preds = %36
  %38 = load i32, i32* %4, align 4
  %39 = add nsw i32 %38, 2
  store i32 %39, i32* %4, align 4
  br label %26

40:                                               ; preds = %35, %26
  %41 = load i32, i32* %6, align 4
  store i32 %41, i32* %2, align 4
  br label %42

42:                                               ; preds = %40, %20, %18, %9
  %43 = load i32, i32* %2, align 4
  ret i32 %43
}

declare dso_local i32 @printf(i8*, ...) #1


!llvm.module.flags = !{!0}
!llvm.ident = !{!1}

!0 = !{i32 1, !"wchar_size", i32 4}
!1 = !{!"clang version 10.0.0-4ubuntu1 "}
